target datalayout = "e-m:e-p270:32:32-p271:32:32-p272:64:64-i64:64-i128:128-f80:128-n8:16:32:64-S128"
target triple = "x86_64-pc-linux-gnu"

%struct.sockaddr_in = type { i16, i16, %struct.in_addr, [8 x i8] }
%struct.in_addr = type { i32 }

@.str.8 = private unnamed_addr constant [12 x i8] c"getnameinfo\00", align 1

; Function Attrs: nounwind sspstrong uwtable
define internal void @make_ipaddr0(ptr noundef %0, i32 noundef %1, ptr noundef %2, i64 noundef %3) #0 {
  %5 = alloca ptr, align 8
  %6 = alloca i32, align 4
  %7 = alloca ptr, align 8
  %8 = alloca i64, align 8
  %9 = alloca i32, align 4
  store ptr %0, ptr %5, align 8, !tbaa !29
  store i32 %1, ptr %6, align 4, !tbaa !27
  store ptr %2, ptr %7, align 8, !tbaa !30
  store i64 %3, ptr %8, align 8, !tbaa !31
  call void @llvm.lifetime.start.p0(i64 4, ptr %9) #24
  %10 = load ptr, ptr %5, align 8, !tbaa !29
  %11 = load i32, ptr %6, align 4, !tbaa !27
  %12 = load ptr, ptr %7, align 8, !tbaa !30
  %13 = load i64, ptr %8, align 8, !tbaa !31
  %14 = call i32 @rb_getnameinfo(ptr noundef %10, i32 noundef %11, ptr noundef %12, i64 noundef %13, ptr noundef null, i64 noundef 0, i32 noundef 1)
  store i32 %14, ptr %9, align 4, !tbaa !27
  %15 = load i32, ptr %9, align 4, !tbaa !27
  %16 = icmp ne i32 %15, 0
  br i1 %16, label %17, label %19

17:                                               ; preds = %4
  %18 = load i32, ptr %9, align 4, !tbaa !27
  call void @rsock_raise_resolution_error(ptr noundef @.str.8, i32 noundef %18) #27
  unreachable

19:                                               ; preds = %4
  call void @llvm.lifetime.end.p0(i64 4, ptr %9) #24
  ret void
}

; Function Attrs: alwaysinline nounwind
define internal ptr @memset.inline(ptr nonnull %0, i32 %1, i64 %2) #12 {
  %4 = alloca ptr, align 8
  %5 = alloca i32, align 4
  %6 = alloca i64, align 8
  store ptr %0, ptr %4, align 8, !tbaa !26
  store i32 %1, ptr %5, align 4, !tbaa !27
  store i64 %2, ptr %6, align 8, !tbaa !31
  %7 = load ptr, ptr %4, align 8, !tbaa !26
  %8 = load i32, ptr %5, align 4, !tbaa !27
  %9 = load i64, ptr %6, align 8, !tbaa !31
  %10 = load ptr, ptr %4, align 8, !tbaa !26
  %11 = call i64 @llvm.objectsize.i64.p0(ptr %10, i1 false, i1 true, i1 false)
  %12 = call ptr @__memset_chk(ptr noundef %7, i32 noundef %8, i64 noundef %9, i64 noundef %11) #24
  ret ptr %12
}

; Function Attrs: nounwind sspstrong uwtable
define internal void @make_inetaddr(i32 noundef %0, ptr noundef %1, i64 noundef %2) #0 {
  %4 = alloca i32, align 4
  %5 = alloca ptr, align 8
  %6 = alloca i64, align 8
  %7 = alloca %struct.sockaddr_in, align 4
  %8 = alloca ptr, align 8
  %9 = alloca i32, align 4
  store i32 %0, ptr %4, align 4, !tbaa !27
  store ptr %1, ptr %5, align 8, !tbaa !30
  store i64 %2, ptr %6, align 8, !tbaa !31
  call void @llvm.lifetime.start.p0(i64 16, ptr %7) #24
  br label %10

10:                                               ; preds = %3
  call void @llvm.lifetime.start.p0(i64 8, ptr %8) #24
  store ptr %7, ptr %8, align 8, !tbaa !55
  call void @llvm.lifetime.start.p0(i64 4, ptr %9) #24
  store i32 16, ptr %9, align 4, !tbaa !27
  %11 = load ptr, ptr %8, align 8, !tbaa !55
  %12 = load i32, ptr %9, align 4, !tbaa !27
  %13 = zext i32 %12 to i64
  %14 = call ptr @memset.inline(ptr noundef %11, i32 noundef 0, i64 noundef %13) #24
  %15 = load ptr, ptr %8, align 8, !tbaa !55
  %16 = getelementptr inbounds nuw %struct.sockaddr_in, ptr %15, i32 0, i32 0
  store i16 2, ptr %16, align 4, !tbaa !57
  call void @llvm.lifetime.end.p0(i64 4, ptr %9) #24
  call void @llvm.lifetime.end.p0(i64 8, ptr %8) #24
  br label %17

17:                                               ; preds = %10
  br label %18

18:                                               ; preds = %17
  %19 = load i32, ptr %4, align 4, !tbaa !27
  %20 = getelementptr inbounds nuw %struct.sockaddr_in, ptr %7, i32 0, i32 2
  %21 = getelementptr inbounds nuw %struct.in_addr, ptr %20, i32 0, i32 0
  store i32 %19, ptr %21, align 4, !tbaa !61
  %22 = load ptr, ptr %5, align 8, !tbaa !30
  %23 = load i64, ptr %6, align 8, !tbaa !31
  call void @make_ipaddr0(ptr noundef %7, i32 noundef 16, ptr noundef %22, i64 noundef %23)
  call void @llvm.lifetime.end.p0(i64 16, ptr %7) #24
  ret void
}