; Function Attrs: nounwind sspstrong uwtable
define internal fastcc void @make_inetaddr(i32 noundef %0, ptr noundef %1, i64 noundef %2) unnamed_addr #0 {
  %4 = alloca %struct.sockaddr_in, align 4
  call void @llvm.lifetime.start.p0(i64 16, ptr nonnull %4) #21
  call void @llvm.memset.p0.i64(ptr noundef nonnull align 4 dereferenceable(16) %4, i8 noundef 0, i64 noundef 16, i1 noundef false) #21
  store i16 2, ptr %4, align 4, !tbaa !39
  %5 = getelementptr inbounds nuw i8, ptr %4, i64 4
  store i32 %0, ptr %5, align 4, !tbaa !43
  %6 = call i32 @rb_getnameinfo(ptr noundef nonnull readonly %4, i32 noundef 16, ptr noundef %1, i64 noundef %2, ptr noundef null, i64 noundef 0, i32 noundef 1)
  %.not.i = icmp eq i32 %6, 0
  br i1 %.not.i, label %make_ipaddr0.exit, label %7

7:                                                ; preds = %3
  tail call void @rsock_raise_resolution_error(ptr noundef nonnull @.str.8, i32 noundef %6) #23
  unreachable

make_ipaddr0.exit:                                ; preds = %3
  call void @llvm.lifetime.end.p0(i64 16, ptr nonnull %4) #21
  ret void
}